#include <math.h>
#include <stdio.h>
#include <stdlib.h>
#include <string.h>

void main()
{
	int n,i=0,j=0,m;
	char a[50][100];
	scanf("%d",&n);
	for(i=0;i<n;i++)
		scanf("%s",&a[i]);
	for(i=0;i<n;i++)
	{
		m=strlen(a[i]); 
		if(a[i][m-2]=='e'&&a[i][m-1]=='r')
			a[i][m-2]=0;
		else if(a[i][m-2]=='l'&&a[i][m-1]=='y')
			a[i][m-2]=0;
		else if(a[i][m-3]=='i'&&a[i][m-2]=='n'&&a[i][m-1]=='g')
			a[i][m-3]=0;
		printf("%s\n",a[i]);
	}
}